target datalayout = "e-m:e-p270:32:32-p271:32:32-p272:64:64-i64:64-i128:128-f80:128-n8:16:32:64-S128"
target triple = "x86_64-pc-linux-gnu"

%struct.ToastTupleContext = type { ptr, ptr, ptr, ptr, ptr, i8, ptr }
%struct.RelationData = type { %struct.RelFileLocator, ptr, i32, i32, i8, i8, i8, i8, i8, i32, i32, i32, i32, ptr, ptr, i32, %struct.LockInfoData, ptr, ptr, ptr, ptr, ptr, i8, ptr, ptr, ptr, ptr, ptr, ptr, i32, ptr, i8, ptr, ptr, i32, i8, i32, ptr, i8, ptr, ptr, ptr, ptr, ptr, ptr, ptr, i32, ptr, ptr, ptr, ptr, ptr, ptr, ptr, ptr, ptr, ptr, ptr, ptr, ptr, ptr, ptr, ptr, ptr, ptr, ptr, i32, i8, ptr }
%struct.RelFileLocator = type { i32, i32, i32 }
%struct.LockInfoData = type { %struct.LockRelId }
%struct.LockRelId = type { i32, i32 }
%struct.TupleDescData = type { i32, i32, i32, i32, ptr, [0 x %struct.CompactAttribute] }
%struct.CompactAttribute = type { i32, i16, i8, i8, i8, i8, i8, i8, i8 }
%struct.ToastAttrInfo = type { ptr, i32, i8, i8 }

; Function Attrs: inlinehint nounwind uwtable
define internal ptr @DatumGetPointer(i64 noundef %0) #2 {
  %2 = alloca i64, align 8
  store i64 %0, ptr %2, align 8
  %3 = load i64, ptr %2, align 8
  %4 = inttoptr i64 %3 to ptr
  ret ptr %4
}

; Function Attrs: nounwind uwtable
define dso_local void @toast_tuple_cleanup(ptr noundef %0) #0 {
  %2 = alloca ptr, align 8
  %3 = alloca ptr, align 8
  %4 = alloca i32, align 4
  %5 = alloca i32, align 4
  %6 = alloca ptr, align 8
  %7 = alloca i32, align 4
  %8 = alloca ptr, align 8
  store ptr %0, ptr %2, align 8
  call void @llvm.lifetime.start.p0(i64 8, ptr %3) #5
  %9 = load ptr, ptr %2, align 8
  %10 = getelementptr inbounds nuw %struct.ToastTupleContext, ptr %9, i32 0, i32 0
  %11 = load ptr, ptr %10, align 8
  %12 = getelementptr inbounds nuw %struct.RelationData, ptr %11, i32 0, i32 14
  %13 = load ptr, ptr %12, align 8
  store ptr %13, ptr %3, align 8
  call void @llvm.lifetime.start.p0(i64 4, ptr %4) #5
  %14 = load ptr, ptr %3, align 8
  %15 = getelementptr inbounds nuw %struct.TupleDescData, ptr %14, i32 0, i32 0
  %16 = load i32, ptr %15, align 8
  store i32 %16, ptr %4, align 4
  %17 = load ptr, ptr %2, align 8
  %18 = getelementptr inbounds nuw %struct.ToastTupleContext, ptr %17, i32 0, i32 5
  %19 = load i8, ptr %18, align 8
  %20 = zext i8 %19 to i32
  %21 = and i32 %20, 2
  %22 = icmp ne i32 %21, 0
  br i1 %22, label %23, label %55

23:                                               ; preds = %1
  call void @llvm.lifetime.start.p0(i64 4, ptr %5) #5
  store i32 0, ptr %5, align 4
  br label %24

24:                                               ; preds = %51, %23
  %25 = load i32, ptr %5, align 4
  %26 = load i32, ptr %4, align 4
  %27 = icmp slt i32 %25, %26
  br i1 %27, label %28, label %54

28:                                               ; preds = %24
  call void @llvm.lifetime.start.p0(i64 8, ptr %6) #5
  %29 = load ptr, ptr %2, align 8
  %30 = getelementptr inbounds nuw %struct.ToastTupleContext, ptr %29, i32 0, i32 6
  %31 = load ptr, ptr %30, align 8
  %32 = load i32, ptr %5, align 4
  %33 = sext i32 %32 to i64
  %34 = getelementptr inbounds %struct.ToastAttrInfo, ptr %31, i64 %33
  store ptr %34, ptr %6, align 8
  %35 = load ptr, ptr %6, align 8
  %36 = getelementptr inbounds nuw %struct.ToastAttrInfo, ptr %35, i32 0, i32 2
  %37 = load i8, ptr %36, align 4
  %38 = zext i8 %37 to i32
  %39 = and i32 %38, 2
  %40 = icmp ne i32 %39, 0
  br i1 %40, label %41, label %50

41:                                               ; preds = %28
  %42 = load ptr, ptr %2, align 8
  %43 = getelementptr inbounds nuw %struct.ToastTupleContext, ptr %42, i32 0, i32 1
  %44 = load ptr, ptr %43, align 8
  %45 = load i32, ptr %5, align 4
  %46 = sext i32 %45 to i64
  %47 = getelementptr inbounds i64, ptr %44, i64 %46
  %48 = load i64, ptr %47, align 8
  %49 = call ptr @DatumGetPointer(i64 noundef %48)
  call void @pfree(ptr noundef %49)
  br label %50

50:                                               ; preds = %41, %28
  call void @llvm.lifetime.end.p0(i64 8, ptr %6) #5
  br label %51

51:                                               ; preds = %50
  %52 = load i32, ptr %5, align 4
  %53 = add i32 %52, 1
  store i32 %53, ptr %5, align 4
  br label %24, !llvm.loop !9

54:                                               ; preds = %24
  call void @llvm.lifetime.end.p0(i64 4, ptr %5) #5
  br label %55

55:                                               ; preds = %54, %1
  %56 = load ptr, ptr %2, align 8
  %57 = getelementptr inbounds nuw %struct.ToastTupleContext, ptr %56, i32 0, i32 5
  %58 = load i8, ptr %57, align 8
  %59 = zext i8 %58 to i32
  %60 = and i32 %59, 1
  %61 = icmp ne i32 %60, 0
  br i1 %61, label %62, label %96

62:                                               ; preds = %55
  call void @llvm.lifetime.start.p0(i64 4, ptr %7) #5
  store i32 0, ptr %7, align 4
  br label %63

63:                                               ; preds = %92, %62
  %64 = load i32, ptr %7, align 4
  %65 = load i32, ptr %4, align 4
  %66 = icmp slt i32 %64, %65
  br i1 %66, label %67, label %95

67:                                               ; preds = %63
  call void @llvm.lifetime.start.p0(i64 8, ptr %8) #5
  %68 = load ptr, ptr %2, align 8
  %69 = getelementptr inbounds nuw %struct.ToastTupleContext, ptr %68, i32 0, i32 6
  %70 = load ptr, ptr %69, align 8
  %71 = load i32, ptr %7, align 4
  %72 = sext i32 %71 to i64
  %73 = getelementptr inbounds %struct.ToastAttrInfo, ptr %70, i64 %72
  store ptr %73, ptr %8, align 8
  %74 = load ptr, ptr %8, align 8
  %75 = getelementptr inbounds nuw %struct.ToastAttrInfo, ptr %74, i32 0, i32 2
  %76 = load i8, ptr %75, align 4
  %77 = zext i8 %76 to i32
  %78 = and i32 %77, 1
  %79 = icmp ne i32 %78, 0
  br i1 %79, label %80, label %91

80:                                               ; preds = %67
  %81 = load ptr, ptr %2, align 8
  %82 = getelementptr inbounds nuw %struct.ToastTupleContext, ptr %81, i32 0, i32 0
  %83 = load ptr, ptr %82, align 8
  %84 = load ptr, ptr %2, align 8
  %85 = getelementptr inbounds nuw %struct.ToastTupleContext, ptr %84, i32 0, i32 3
  %86 = load ptr, ptr %85, align 8
  %87 = load i32, ptr %7, align 4
  %88 = sext i32 %87 to i64
  %89 = getelementptr inbounds i64, ptr %86, i64 %88
  %90 = load i64, ptr %89, align 8
  call void @toast_delete_datum(ptr noundef %83, i64 noundef %90, i1 noundef zeroext false)
  br label %91

91:                                               ; preds = %80, %67
  call void @llvm.lifetime.end.p0(i64 8, ptr %8) #5
  br label %92

92:                                               ; preds = %91
  %93 = load i32, ptr %7, align 4
  %94 = add i32 %93, 1
  store i32 %94, ptr %7, align 4
  br label %63, !llvm.loop !10

95:                                               ; preds = %63
  call void @llvm.lifetime.end.p0(i64 4, ptr %7) #5
  br label %96

96:                                               ; preds = %95, %55
  call void @llvm.lifetime.end.p0(i64 4, ptr %4) #5
  call void @llvm.lifetime.end.p0(i64 8, ptr %3) #5
  ret void
}