; Function Attrs: nounwind uwtable
define dso_local void @toast_tuple_cleanup(ptr noundef readonly captures(none) %0) local_unnamed_addr #0 {
  %2 = load ptr, ptr %0, align 8
  %3 = getelementptr inbounds nuw i8, ptr %2, i64 64
  %4 = load ptr, ptr %3, align 8
  %5 = load i32, ptr %4, align 8
  %6 = getelementptr inbounds nuw i8, ptr %0, i64 40
  %7 = load i8, ptr %6, align 8
  %8 = and i8 %7, 2
  %.not = icmp ne i8 %8, 0
  %9 = icmp sgt i32 %5, 0
  %or.cond = select i1 %.not, i1 %9, i1 false
  br i1 %or.cond, label %.lr.ph, label %.loopexit25

.lr.ph:                                           ; preds = %1
  %10 = getelementptr inbounds nuw i8, ptr %0, i64 48
  %11 = getelementptr inbounds nuw i8, ptr %0, i64 8
  %wide.trip.count = zext nneg i32 %5 to i64
  br label %12

12:                                               ; preds = %.lr.ph, %22
  %indvars.iv = phi i64 [ 0, %.lr.ph ], [ %indvars.iv.next, %22 ]
  %13 = load ptr, ptr %10, align 8
  %14 = getelementptr inbounds nuw %struct.ToastAttrInfo, ptr %13, i64 %indvars.iv, i32 2
  %15 = load i8, ptr %14, align 4
  %16 = and i8 %15, 2
  %.not23 = icmp eq i8 %16, 0
  br i1 %.not23, label %22, label %17

17:                                               ; preds = %12
  %18 = load ptr, ptr %11, align 8
  %19 = getelementptr inbounds nuw i64, ptr %18, i64 %indvars.iv
  %20 = load i64, ptr %19, align 8
  %21 = inttoptr i64 %20 to ptr
  tail call void @pfree(ptr noundef %21) #5
  br label %22

22:                                               ; preds = %17, %12
  %indvars.iv.next = add nuw nsw i64 %indvars.iv, 1
  %exitcond.not = icmp eq i64 %indvars.iv.next, %wide.trip.count
  br i1 %exitcond.not, label %.loopexit25.loopexit, label %12, !llvm.loop !9

.loopexit25.loopexit:                             ; preds = %22
  %.pre = load i8, ptr %6, align 8
  br label %.loopexit25

.loopexit25:                                      ; preds = %.loopexit25.loopexit, %1
  %23 = phi i8 [ %.pre, %.loopexit25.loopexit ], [ %7, %1 ]
  %24 = and i8 %23, 1
  %.not21 = icmp ne i8 %24, 0
  %or.cond29 = select i1 %.not21, i1 %9, i1 false
  br i1 %or.cond29, label %.lr.ph28, label %.loopexit

.lr.ph28:                                         ; preds = %.loopexit25
  %25 = getelementptr inbounds nuw i8, ptr %0, i64 48
  %26 = getelementptr inbounds nuw i8, ptr %0, i64 24
  %wide.trip.count34 = zext nneg i32 %5 to i64
  br label %27

27:                                               ; preds = %.lr.ph28, %37
  %indvars.iv31 = phi i64 [ 0, %.lr.ph28 ], [ %indvars.iv.next32, %37 ]
  %28 = load ptr, ptr %25, align 8
  %29 = getelementptr inbounds nuw %struct.ToastAttrInfo, ptr %28, i64 %indvars.iv31, i32 2
  %30 = load i8, ptr %29, align 4
  %31 = and i8 %30, 1
  %.not22 = icmp eq i8 %31, 0
  br i1 %.not22, label %37, label %32

32:                                               ; preds = %27
  %33 = load ptr, ptr %0, align 8
  %34 = load ptr, ptr %26, align 8
  %35 = getelementptr inbounds nuw i64, ptr %34, i64 %indvars.iv31
  %36 = load i64, ptr %35, align 8
  tail call void @toast_delete_datum(ptr noundef %33, i64 noundef %36, i1 noundef zeroext false) #5
  br label %37

37:                                               ; preds = %32, %27
  %indvars.iv.next32 = add nuw nsw i64 %indvars.iv31, 1
  %exitcond35.not = icmp eq i64 %indvars.iv.next32, %wide.trip.count34
  br i1 %exitcond35.not, label %.loopexit, label %27, !llvm.loop !10

.loopexit:                                        ; preds = %37, %.loopexit25
  ret void
}